; Function Attrs: nounwind uwtable
define range(i32 -4, 1) i32 @CVSpbcg(ptr noundef %0, i32 noundef %1, i32 noundef %2) local_unnamed_addr #0 {
  %4 = icmp eq ptr %0, null
  br i1 %4, label %5, label %6

5:                                                ; preds = %3
  tail call void (ptr, i32, ptr, ptr, ptr, ...) @cvProcessError(ptr noundef null, i32 noundef -1, ptr noundef nonnull @.str, ptr noundef nonnull @.str.1, ptr noundef nonnull @.str.2) #7
  br label %64

6:                                                ; preds = %3
  %7 = getelementptr inbounds nuw i8, ptr %0, i64 448
  %8 = load ptr, ptr %7, align 8, !tbaa !3
  %9 = getelementptr inbounds nuw i8, ptr %8, i64 8
  %10 = load ptr, ptr %9, align 8, !tbaa !18
  %11 = getelementptr inbounds nuw i8, ptr %10, i64 112
  %12 = load ptr, ptr %11, align 8, !tbaa !21
  %13 = icmp eq ptr %12, null
  br i1 %13, label %14, label %15

14:                                               ; preds = %6
  tail call void (ptr, i32, ptr, ptr, ptr, ...) @cvProcessError(ptr noundef nonnull %0, i32 noundef -3, ptr noundef nonnull @.str, ptr noundef nonnull @.str.1, ptr noundef nonnull @.str.3) #7
  br label %64

15:                                               ; preds = %6
  %16 = getelementptr inbounds nuw i8, ptr %0, i64 1688
  %17 = load ptr, ptr %16, align 8, !tbaa !23
  %.not = icmp eq ptr %17, null
  br i1 %.not, label %19, label %18

18:                                               ; preds = %15
  tail call void %17(ptr noundef nonnull %0) #7
  br label %19

19:                                               ; preds = %18, %15
  %20 = getelementptr inbounds nuw i8, ptr %0, i64 1664
  store ptr @CVSpbcgInit, ptr %20, align 8, !tbaa !24
  %21 = getelementptr inbounds nuw i8, ptr %0, i64 1672
  store ptr @CVSpbcgSetup, ptr %21, align 8, !tbaa !25
  %22 = getelementptr inbounds nuw i8, ptr %0, i64 1680
  store ptr @CVSpbcgSolve, ptr %22, align 8, !tbaa !26
  store ptr @CVSpbcgFree, ptr %16, align 8, !tbaa !23
  %23 = tail call noalias dereferenceable_or_null(216) ptr @malloc(i64 noundef 216) #8
  %24 = icmp eq ptr %23, null
  br i1 %24, label %25, label %26

25:                                               ; preds = %19
  tail call void (ptr, i32, ptr, ptr, ptr, ...) @cvProcessError(ptr noundef nonnull %0, i32 noundef -4, ptr noundef nonnull @.str, ptr noundef nonnull @.str.1, ptr noundef nonnull @.str.4) #7
  br label %64

26:                                               ; preds = %19
  store i32 2, ptr %23, align 8, !tbaa !27
  %27 = getelementptr inbounds nuw i8, ptr %23, i64 4
  store i32 %1, ptr %27, align 4, !tbaa !29
  %28 = icmp slt i32 %2, 1
  %29 = select i1 %28, i32 5, i32 %2
  %30 = getelementptr inbounds nuw i8, ptr %23, i64 48
  store i32 %29, ptr %30, align 8, !tbaa !30
  %31 = getelementptr inbounds nuw i8, ptr %23, i64 184
  store i32 1, ptr %31, align 8, !tbaa !31
  %32 = getelementptr inbounds nuw i8, ptr %23, i64 192
  %33 = getelementptr inbounds nuw i8, ptr %23, i64 152
  %34 = getelementptr inbounds nuw i8, ptr %0, i64 16
  tail call void @llvm.memset.p0.i64(ptr noundef nonnull align 8 dereferenceable(24) %33, i8 0, i64 24, i1 false)
  tail call void @llvm.memset.p0.i64(ptr noundef nonnull align 8 dereferenceable(16) %32, i8 0, i64 16, i1 false)
  %35 = load ptr, ptr %34, align 8, !tbaa !32
  %36 = getelementptr inbounds nuw i8, ptr %23, i64 176
  store ptr %35, ptr %36, align 8, !tbaa !33
  %37 = getelementptr inbounds nuw i8, ptr %23, i64 24
  store double 5.000000e-02, ptr %37, align 8, !tbaa !34
  %38 = getelementptr inbounds nuw i8, ptr %23, i64 208
  store i64 0, ptr %38, align 8, !tbaa !35
  %39 = getelementptr inbounds nuw i8, ptr %0, i64 1780
  store i32 0, ptr %39, align 4, !tbaa !36
  %or.cond5 = icmp ugt i32 %1, 3
  br i1 %or.cond5, label %40, label %41

40:                                               ; preds = %26
  tail call void (ptr, i32, ptr, ptr, ptr, ...) @cvProcessError(ptr noundef nonnull %0, i32 noundef -3, ptr noundef nonnull @.str, ptr noundef nonnull @.str.1, ptr noundef nonnull @.str.5) #7
  tail call void @free(ptr noundef nonnull %23) #7
  br label %64

41:                                               ; preds = %26
  %42 = load ptr, ptr %7, align 8, !tbaa !3
  %43 = tail call ptr @N_VClone(ptr noundef %42) #7
  %44 = getelementptr inbounds nuw i8, ptr %23, i64 112
  store ptr %43, ptr %44, align 8, !tbaa !37
  %45 = icmp eq ptr %43, null
  br i1 %45, label %46, label %47

46:                                               ; preds = %41
  tail call void (ptr, i32, ptr, ptr, ptr, ...) @cvProcessError(ptr noundef nonnull %0, i32 noundef -4, ptr noundef nonnull @.str, ptr noundef nonnull @.str.1, ptr noundef nonnull @.str.4) #7
  tail call void @free(ptr noundef nonnull %23) #7
  br label %64

47:                                               ; preds = %41
  %48 = load ptr, ptr %7, align 8, !tbaa !3
  %49 = tail call ptr @N_VClone(ptr noundef %48) #7
  %50 = getelementptr inbounds nuw i8, ptr %23, i64 120
  store ptr %49, ptr %50, align 8, !tbaa !38
  %51 = icmp eq ptr %49, null
  br i1 %51, label %52, label %53

52:                                               ; preds = %47
  tail call void (ptr, i32, ptr, ptr, ptr, ...) @cvProcessError(ptr noundef nonnull %0, i32 noundef -4, ptr noundef nonnull @.str, ptr noundef nonnull @.str.1, ptr noundef nonnull @.str.4) #7
  tail call void @N_VDestroy(ptr noundef nonnull %43) #7
  tail call void @free(ptr noundef nonnull %23) #7
  br label %64

53:                                               ; preds = %47
  tail call void @N_VConst(double noundef 1.000000e+00, ptr noundef nonnull %43) #7
  %54 = tail call double @N_VDotProd(ptr noundef nonnull %43, ptr noundef nonnull %43) #7
  %55 = tail call double @SUNRsqrt(double noundef %54) #7
  %56 = getelementptr inbounds nuw i8, ptr %23, i64 16
  store double %55, ptr %56, align 8, !tbaa !39
  %57 = load ptr, ptr %7, align 8, !tbaa !3
  %58 = tail call ptr @SpbcgMalloc(i32 noundef %29, ptr noundef %57) #7
  %59 = icmp eq ptr %58, null
  br i1 %59, label %60, label %61

60:                                               ; preds = %53
  tail call void (ptr, i32, ptr, ptr, ptr, ...) @cvProcessError(ptr noundef nonnull %0, i32 noundef -4, ptr noundef nonnull @.str, ptr noundef nonnull @.str.1, ptr noundef nonnull @.str.4) #7
  tail call void @N_VDestroy(ptr noundef nonnull %43) #7
  tail call void @N_VDestroy(ptr noundef nonnull %49) #7
  tail call void @free(ptr noundef nonnull %23) #7
  br label %64

61:                                               ; preds = %53
  %62 = getelementptr inbounds nuw i8, ptr %23, i64 144
  store ptr %58, ptr %62, align 8, !tbaa !40
  %63 = getelementptr inbounds nuw i8, ptr %0, i64 1696
  store ptr %23, ptr %63, align 8, !tbaa !41
  br label %64

64:                                               ; preds = %61, %60, %52, %46, %40, %25, %14, %5
  %.0 = phi i32 [ -1, %5 ], [ -3, %14 ], [ -4, %25 ], [ -3, %40 ], [ -4, %46 ], [ -4, %52 ], [ -4, %60 ], [ 0, %61 ]
  ret i32 %.0
}